
sobel.elf:     file format elf32-littleriscv


Disassembly of section .text:

80000000 <times>:
80000000:	fd010113          	addi	sp,sp,-48
80000004:	02812623          	sw	s0,44(sp)
80000008:	03010413          	addi	s0,sp,48
8000000c:	fca42e23          	sw	a0,-36(s0)
80000010:	fcb42c23          	sw	a1,-40(s0)
80000014:	fdc42783          	lw	a5,-36(s0)
80000018:	01f7d793          	srli	a5,a5,0x1f
8000001c:	0ff7f793          	zext.b	a5,a5
80000020:	fef42423          	sw	a5,-24(s0)
80000024:	fd842783          	lw	a5,-40(s0)
80000028:	01f7d793          	srli	a5,a5,0x1f
8000002c:	0ff7f793          	zext.b	a5,a5
80000030:	fef42223          	sw	a5,-28(s0)
80000034:	fe042623          	sw	zero,-20(s0)
80000038:	fe842783          	lw	a5,-24(s0)
8000003c:	00078863          	beqz	a5,8000004c <times+0x4c>
80000040:	fdc42783          	lw	a5,-36(s0)
80000044:	40f007b3          	neg	a5,a5
80000048:	fcf42e23          	sw	a5,-36(s0)
8000004c:	fe442783          	lw	a5,-28(s0)
80000050:	04078463          	beqz	a5,80000098 <times+0x98>
80000054:	fd842783          	lw	a5,-40(s0)
80000058:	40f007b3          	neg	a5,a5
8000005c:	fcf42c23          	sw	a5,-40(s0)
80000060:	0380006f          	j	80000098 <times+0x98>
80000064:	fd842783          	lw	a5,-40(s0)
80000068:	0017f793          	andi	a5,a5,1
8000006c:	00078a63          	beqz	a5,80000080 <times+0x80>
80000070:	fec42703          	lw	a4,-20(s0)
80000074:	fdc42783          	lw	a5,-36(s0)
80000078:	00f707b3          	add	a5,a4,a5
8000007c:	fef42623          	sw	a5,-20(s0)
80000080:	fdc42783          	lw	a5,-36(s0)
80000084:	00179793          	slli	a5,a5,0x1
80000088:	fcf42e23          	sw	a5,-36(s0)
8000008c:	fd842783          	lw	a5,-40(s0)
80000090:	4017d793          	srai	a5,a5,0x1
80000094:	fcf42c23          	sw	a5,-40(s0)
80000098:	fd842783          	lw	a5,-40(s0)
8000009c:	fc0794e3          	bnez	a5,80000064 <times+0x64>
800000a0:	fe842783          	lw	a5,-24(s0)
800000a4:	00078663          	beqz	a5,800000b0 <times+0xb0>
800000a8:	fe442783          	lw	a5,-28(s0)
800000ac:	00078a63          	beqz	a5,800000c0 <times+0xc0>
800000b0:	fe842783          	lw	a5,-24(s0)
800000b4:	00079c63          	bnez	a5,800000cc <times+0xcc>
800000b8:	fe442783          	lw	a5,-28(s0)
800000bc:	00078863          	beqz	a5,800000cc <times+0xcc>
800000c0:	fec42783          	lw	a5,-20(s0)
800000c4:	40f007b3          	neg	a5,a5
800000c8:	fef42623          	sw	a5,-20(s0)
800000cc:	fec42783          	lw	a5,-20(s0)
800000d0:	00078513          	mv	a0,a5
800000d4:	02c12403          	lw	s0,44(sp)
800000d8:	03010113          	addi	sp,sp,48
800000dc:	00008067          	ret

800000e0 <int_sqrt>:
800000e0:	fd010113          	addi	sp,sp,-48
800000e4:	02112623          	sw	ra,44(sp)
800000e8:	02812423          	sw	s0,40(sp)
800000ec:	03010413          	addi	s0,sp,48
800000f0:	fca42e23          	sw	a0,-36(s0)
800000f4:	00200793          	li	a5,2
800000f8:	fef42423          	sw	a5,-24(s0)
800000fc:	fe842783          	lw	a5,-24(s0)
80000100:	fdc42703          	lw	a4,-36(s0)
80000104:	40f757b3          	sra	a5,a4,a5
80000108:	fef42223          	sw	a5,-28(s0)
8000010c:	0200006f          	j	8000012c <int_sqrt+0x4c>
80000110:	fe842783          	lw	a5,-24(s0)
80000114:	00278793          	addi	a5,a5,2
80000118:	fef42423          	sw	a5,-24(s0)
8000011c:	fe842783          	lw	a5,-24(s0)
80000120:	fdc42703          	lw	a4,-36(s0)
80000124:	40f757b3          	sra	a5,a4,a5
80000128:	fef42223          	sw	a5,-28(s0)
8000012c:	fe442783          	lw	a5,-28(s0)
80000130:	00078863          	beqz	a5,80000140 <int_sqrt+0x60>
80000134:	fe442703          	lw	a4,-28(s0)
80000138:	fdc42783          	lw	a5,-36(s0)
8000013c:	fcf71ae3          	bne	a4,a5,80000110 <int_sqrt+0x30>
80000140:	fe842783          	lw	a5,-24(s0)
80000144:	ffe78793          	addi	a5,a5,-2
80000148:	fef42423          	sw	a5,-24(s0)
8000014c:	fe042623          	sw	zero,-20(s0)
80000150:	0500006f          	j	800001a0 <int_sqrt+0xc0>
80000154:	fec42783          	lw	a5,-20(s0)
80000158:	00179793          	slli	a5,a5,0x1
8000015c:	fef42623          	sw	a5,-20(s0)
80000160:	fec42783          	lw	a5,-20(s0)
80000164:	00178793          	addi	a5,a5,1
80000168:	fef42023          	sw	a5,-32(s0)
8000016c:	fe042583          	lw	a1,-32(s0)
80000170:	fe042503          	lw	a0,-32(s0)
80000174:	e8dff0ef          	jal	ra,80000000 <times>
80000178:	00050693          	mv	a3,a0
8000017c:	fe842783          	lw	a5,-24(s0)
80000180:	fdc42703          	lw	a4,-36(s0)
80000184:	40f757b3          	sra	a5,a4,a5
80000188:	00d7c663          	blt	a5,a3,80000194 <int_sqrt+0xb4>
8000018c:	fe042783          	lw	a5,-32(s0)
80000190:	fef42623          	sw	a5,-20(s0)
80000194:	fe842783          	lw	a5,-24(s0)
80000198:	ffe78793          	addi	a5,a5,-2
8000019c:	fef42423          	sw	a5,-24(s0)
800001a0:	fe842783          	lw	a5,-24(s0)
800001a4:	fa07d8e3          	bgez	a5,80000154 <int_sqrt+0x74>
800001a8:	fec42783          	lw	a5,-20(s0)
800001ac:	00078513          	mv	a0,a5
800001b0:	02c12083          	lw	ra,44(sp)
800001b4:	02812403          	lw	s0,40(sp)
800001b8:	03010113          	addi	sp,sp,48
800001bc:	00008067          	ret

800001c0 <conv2D_sw>:
800001c0:	fb010113          	addi	sp,sp,-80
800001c4:	04112623          	sw	ra,76(sp)
800001c8:	04812423          	sw	s0,72(sp)
800001cc:	04912223          	sw	s1,68(sp)
800001d0:	05010413          	addi	s0,sp,80
800001d4:	faa42e23          	sw	a0,-68(s0)
800001d8:	fab42c23          	sw	a1,-72(s0)
800001dc:	fac42a23          	sw	a2,-76(s0)
800001e0:	fe042223          	sw	zero,-28(s0)
800001e4:	fe042023          	sw	zero,-32(s0)
800001e8:	fe042623          	sw	zero,-20(s0)
800001ec:	1640006f          	j	80000350 <conv2D_sw+0x190>
800001f0:	fec42783          	lw	a5,-20(s0)
800001f4:	00279793          	slli	a5,a5,0x2
800001f8:	fb442703          	lw	a4,-76(s0)
800001fc:	00f707b3          	add	a5,a4,a5
80000200:	0007a023          	sw	zero,0(a5)
80000204:	fc042e23          	sw	zero,-36(s0)
80000208:	fc042c23          	sw	zero,-40(s0)
8000020c:	fe042423          	sw	zero,-24(s0)
80000210:	1000006f          	j	80000310 <conv2D_sw+0x150>
80000214:	fe442783          	lw	a5,-28(s0)
80000218:	fff78793          	addi	a5,a5,-1
8000021c:	fd842703          	lw	a4,-40(s0)
80000220:	00f707b3          	add	a5,a4,a5
80000224:	fcf42823          	sw	a5,-48(s0)
80000228:	fe042783          	lw	a5,-32(s0)
8000022c:	fff78793          	addi	a5,a5,-1
80000230:	fdc42703          	lw	a4,-36(s0)
80000234:	00f707b3          	add	a5,a4,a5
80000238:	fcf42623          	sw	a5,-52(s0)
8000023c:	fc042a23          	sw	zero,-44(s0)
80000240:	fd042783          	lw	a5,-48(s0)
80000244:	0407c463          	bltz	a5,8000028c <conv2D_sw+0xcc>
80000248:	fd042703          	lw	a4,-48(s0)
8000024c:	03f00793          	li	a5,63
80000250:	02e7ce63          	blt	a5,a4,8000028c <conv2D_sw+0xcc>
80000254:	fcc42783          	lw	a5,-52(s0)
80000258:	0207ca63          	bltz	a5,8000028c <conv2D_sw+0xcc>
8000025c:	fcc42703          	lw	a4,-52(s0)
80000260:	03f00793          	li	a5,63
80000264:	02e7c463          	blt	a5,a4,8000028c <conv2D_sw+0xcc>
80000268:	fcc42783          	lw	a5,-52(s0)
8000026c:	00679713          	slli	a4,a5,0x6
80000270:	fd042783          	lw	a5,-48(s0)
80000274:	00f707b3          	add	a5,a4,a5
80000278:	00279793          	slli	a5,a5,0x2
8000027c:	fbc42703          	lw	a4,-68(s0)
80000280:	00f707b3          	add	a5,a4,a5
80000284:	0007a783          	lw	a5,0(a5)
80000288:	fcf42a23          	sw	a5,-44(s0)
8000028c:	fec42783          	lw	a5,-20(s0)
80000290:	00279793          	slli	a5,a5,0x2
80000294:	fb442703          	lw	a4,-76(s0)
80000298:	00f707b3          	add	a5,a4,a5
8000029c:	0007a483          	lw	s1,0(a5)
800002a0:	fe842783          	lw	a5,-24(s0)
800002a4:	00279793          	slli	a5,a5,0x2
800002a8:	fb842703          	lw	a4,-72(s0)
800002ac:	00f707b3          	add	a5,a4,a5
800002b0:	0007a783          	lw	a5,0(a5)
800002b4:	00078593          	mv	a1,a5
800002b8:	fd442503          	lw	a0,-44(s0)
800002bc:	d45ff0ef          	jal	ra,80000000 <times>
800002c0:	00050693          	mv	a3,a0
800002c4:	fec42783          	lw	a5,-20(s0)
800002c8:	00279793          	slli	a5,a5,0x2
800002cc:	fb442703          	lw	a4,-76(s0)
800002d0:	00f707b3          	add	a5,a4,a5
800002d4:	00d48733          	add	a4,s1,a3
800002d8:	00e7a023          	sw	a4,0(a5)
800002dc:	fd842783          	lw	a5,-40(s0)
800002e0:	00178793          	addi	a5,a5,1
800002e4:	fcf42c23          	sw	a5,-40(s0)
800002e8:	fd842703          	lw	a4,-40(s0)
800002ec:	00300793          	li	a5,3
800002f0:	00f71a63          	bne	a4,a5,80000304 <conv2D_sw+0x144>
800002f4:	fc042c23          	sw	zero,-40(s0)
800002f8:	fdc42783          	lw	a5,-36(s0)
800002fc:	00178793          	addi	a5,a5,1
80000300:	fcf42e23          	sw	a5,-36(s0)
80000304:	fe842783          	lw	a5,-24(s0)
80000308:	00178793          	addi	a5,a5,1
8000030c:	fef42423          	sw	a5,-24(s0)
80000310:	fe842703          	lw	a4,-24(s0)
80000314:	00800793          	li	a5,8
80000318:	eee7dee3          	bge	a5,a4,80000214 <conv2D_sw+0x54>
8000031c:	fe442783          	lw	a5,-28(s0)
80000320:	00178793          	addi	a5,a5,1
80000324:	fef42223          	sw	a5,-28(s0)
80000328:	fe442703          	lw	a4,-28(s0)
8000032c:	04000793          	li	a5,64
80000330:	00f71a63          	bne	a4,a5,80000344 <conv2D_sw+0x184>
80000334:	fe042223          	sw	zero,-28(s0)
80000338:	fe042783          	lw	a5,-32(s0)
8000033c:	00178793          	addi	a5,a5,1
80000340:	fef42023          	sw	a5,-32(s0)
80000344:	fec42783          	lw	a5,-20(s0)
80000348:	00178793          	addi	a5,a5,1
8000034c:	fef42623          	sw	a5,-20(s0)
80000350:	fec42703          	lw	a4,-20(s0)
80000354:	000017b7          	lui	a5,0x1
80000358:	e8f74ce3          	blt	a4,a5,800001f0 <conv2D_sw+0x30>
8000035c:	00000013          	nop
80000360:	00000013          	nop
80000364:	04c12083          	lw	ra,76(sp)
80000368:	04812403          	lw	s0,72(sp)
8000036c:	04412483          	lw	s1,68(sp)
80000370:	05010113          	addi	sp,sp,80
80000374:	00008067          	ret

80000378 <checksum>:
80000378:	fd010113          	addi	sp,sp,-48
8000037c:	02812623          	sw	s0,44(sp)
80000380:	03010413          	addi	s0,sp,48
80000384:	fca42e23          	sw	a0,-36(s0)
80000388:	fe042623          	sw	zero,-20(s0)
8000038c:	fe042423          	sw	zero,-24(s0)
80000390:	0300006f          	j	800003c0 <checksum+0x48>
80000394:	fe842783          	lw	a5,-24(s0)
80000398:	00279793          	slli	a5,a5,0x2
8000039c:	fdc42703          	lw	a4,-36(s0)
800003a0:	00f707b3          	add	a5,a4,a5
800003a4:	0007a783          	lw	a5,0(a5) # 1000 <tohost-0xffff000>
800003a8:	fec42703          	lw	a4,-20(s0)
800003ac:	00f707b3          	add	a5,a4,a5
800003b0:	fef42623          	sw	a5,-20(s0)
800003b4:	fe842783          	lw	a5,-24(s0)
800003b8:	00178793          	addi	a5,a5,1
800003bc:	fef42423          	sw	a5,-24(s0)
800003c0:	fe842703          	lw	a4,-24(s0)
800003c4:	000017b7          	lui	a5,0x1
800003c8:	fcf746e3          	blt	a4,a5,80000394 <checksum+0x1c>
800003cc:	fec42783          	lw	a5,-20(s0)
800003d0:	00078513          	mv	a0,a5
800003d4:	02c12403          	lw	s0,44(sp)
800003d8:	03010113          	addi	sp,sp,48
800003dc:	00008067          	ret

800003e0 <main>:
800003e0:	fb010113          	addi	sp,sp,-80
800003e4:	04112623          	sw	ra,76(sp)
800003e8:	04812423          	sw	s0,72(sp)
800003ec:	04912223          	sw	s1,68(sp)
800003f0:	05010413          	addi	s0,sp,80
800003f4:	faa42e23          	sw	a0,-68(s0)
800003f8:	fab42c23          	sw	a1,-72(s0)
800003fc:	1000d7b7          	lui	a5,0x1000d
80000400:	2a078513          	addi	a0,a5,672 # 1000d2a0 <str0>
80000404:	418000ef          	jal	ra,8000081c <tohost_printstr>
80000408:	00000593          	li	a1,0
8000040c:	00000613          	li	a2,0
80000410:	1000d7b7          	lui	a5,0x1000d
80000414:	28c78513          	addi	a0,a5,652 # 1000d28c <ifm_file>
80000418:	4a8000ef          	jal	ra,800008c0 <tohost_open>
8000041c:	fea42023          	sw	a0,-32(s0)
80000420:	feb42223          	sw	a1,-28(s0)
80000424:	000016b7          	lui	a3,0x1
80000428:	00000713          	li	a4,0
8000042c:	100087b7          	lui	a5,0x10008
80000430:	0b478613          	addi	a2,a5,180 # 100080b4 <ifm_buf>
80000434:	fe042503          	lw	a0,-32(s0)
80000438:	fe442583          	lw	a1,-28(s0)
8000043c:	6b0000ef          	jal	ra,80000aec <tohost_read>
80000440:	fe042503          	lw	a0,-32(s0)
80000444:	fe442583          	lw	a1,-28(s0)
80000448:	57c000ef          	jal	ra,800009c4 <tohost_close>
8000044c:	fe042423          	sw	zero,-24(s0)
80000450:	fc042e23          	sw	zero,-36(s0)
80000454:	0400006f          	j	80000494 <main+0xb4>
80000458:	100087b7          	lui	a5,0x10008
8000045c:	0b478713          	addi	a4,a5,180 # 100080b4 <ifm_buf>
80000460:	fe842783          	lw	a5,-24(s0)
80000464:	00f707b3          	add	a5,a4,a5
80000468:	0007c783          	lbu	a5,0(a5)
8000046c:	00078693          	mv	a3,a5
80000470:	100097b7          	lui	a5,0x10009
80000474:	0b478713          	addi	a4,a5,180 # 100090b4 <ifm_use>
80000478:	fe842783          	lw	a5,-24(s0)
8000047c:	00279793          	slli	a5,a5,0x2
80000480:	00f707b3          	add	a5,a4,a5
80000484:	00d7a023          	sw	a3,0(a5)
80000488:	fe842783          	lw	a5,-24(s0)
8000048c:	00178793          	addi	a5,a5,1
80000490:	fef42423          	sw	a5,-24(s0)
80000494:	fe842703          	lw	a4,-24(s0)
80000498:	000017b7          	lui	a5,0x1
8000049c:	faf76ee3          	bltu	a4,a5,80000458 <main+0x78>
800004a0:	1000d7b7          	lui	a5,0x1000d
800004a4:	2d078513          	addi	a0,a5,720 # 1000d2d0 <str1>
800004a8:	374000ef          	jal	ra,8000081c <tohost_printstr>
800004ac:	1000d7b7          	lui	a5,0x1000d
800004b0:	2dc78513          	addi	a0,a5,732 # 1000d2dc <str2>
800004b4:	368000ef          	jal	ra,8000081c <tohost_printstr>
800004b8:	100007b7          	lui	a5,0x10000
800004bc:	0b478613          	addi	a2,a5,180 # 100000b4 <ofm_x>
800004c0:	1000d7b7          	lui	a5,0x1000d
800004c4:	24478593          	addi	a1,a5,580 # 1000d244 <wt_x>
800004c8:	100097b7          	lui	a5,0x10009
800004cc:	0b478513          	addi	a0,a5,180 # 100090b4 <ifm_use>
800004d0:	cf1ff0ef          	jal	ra,800001c0 <conv2D_sw>
800004d4:	1000d7b7          	lui	a5,0x1000d
800004d8:	2ec78513          	addi	a0,a5,748 # 1000d2ec <str3>
800004dc:	340000ef          	jal	ra,8000081c <tohost_printstr>
800004e0:	100047b7          	lui	a5,0x10004
800004e4:	0b478613          	addi	a2,a5,180 # 100040b4 <ofm_y>
800004e8:	1000d7b7          	lui	a5,0x1000d
800004ec:	26878593          	addi	a1,a5,616 # 1000d268 <wt_y>
800004f0:	100097b7          	lui	a5,0x10009
800004f4:	0b478513          	addi	a0,a5,180 # 100090b4 <ifm_use>
800004f8:	cc9ff0ef          	jal	ra,800001c0 <conv2D_sw>
800004fc:	1000d7b7          	lui	a5,0x1000d
80000500:	2fc78513          	addi	a0,a5,764 # 1000d2fc <str4>
80000504:	318000ef          	jal	ra,8000081c <tohost_printstr>
80000508:	fe042623          	sw	zero,-20(s0)
8000050c:	0ec0006f          	j	800005f8 <main+0x218>
80000510:	100007b7          	lui	a5,0x10000
80000514:	0b478713          	addi	a4,a5,180 # 100000b4 <ofm_x>
80000518:	fec42783          	lw	a5,-20(s0)
8000051c:	00279793          	slli	a5,a5,0x2
80000520:	00f707b3          	add	a5,a4,a5
80000524:	0007a683          	lw	a3,0(a5)
80000528:	100007b7          	lui	a5,0x10000
8000052c:	0b478713          	addi	a4,a5,180 # 100000b4 <ofm_x>
80000530:	fec42783          	lw	a5,-20(s0)
80000534:	00279793          	slli	a5,a5,0x2
80000538:	00f707b3          	add	a5,a4,a5
8000053c:	0007a783          	lw	a5,0(a5)
80000540:	00078593          	mv	a1,a5
80000544:	00068513          	mv	a0,a3
80000548:	ab9ff0ef          	jal	ra,80000000 <times>
8000054c:	00050493          	mv	s1,a0
80000550:	100047b7          	lui	a5,0x10004
80000554:	0b478713          	addi	a4,a5,180 # 100040b4 <ofm_y>
80000558:	fec42783          	lw	a5,-20(s0)
8000055c:	00279793          	slli	a5,a5,0x2
80000560:	00f707b3          	add	a5,a4,a5
80000564:	0007a683          	lw	a3,0(a5)
80000568:	100047b7          	lui	a5,0x10004
8000056c:	0b478713          	addi	a4,a5,180 # 100040b4 <ofm_y>
80000570:	fec42783          	lw	a5,-20(s0)
80000574:	00279793          	slli	a5,a5,0x2
80000578:	00f707b3          	add	a5,a4,a5
8000057c:	0007a783          	lw	a5,0(a5)
80000580:	00078593          	mv	a1,a5
80000584:	00068513          	mv	a0,a3
80000588:	a79ff0ef          	jal	ra,80000000 <times>
8000058c:	00050793          	mv	a5,a0
80000590:	00f487b3          	add	a5,s1,a5
80000594:	00078513          	mv	a0,a5
80000598:	b49ff0ef          	jal	ra,800000e0 <int_sqrt>
8000059c:	fca42623          	sw	a0,-52(s0)
800005a0:	fcc42783          	lw	a5,-52(s0)
800005a4:	0ff00713          	li	a4,255
800005a8:	00f75463          	bge	a4,a5,800005b0 <main+0x1d0>
800005ac:	0ff00793          	li	a5,255
800005b0:	fcf42623          	sw	a5,-52(s0)
800005b4:	fcc42783          	lw	a5,-52(s0)
800005b8:	0ff7f713          	zext.b	a4,a5
800005bc:	100087b7          	lui	a5,0x10008
800005c0:	0b478693          	addi	a3,a5,180 # 100080b4 <ifm_buf>
800005c4:	fec42783          	lw	a5,-20(s0)
800005c8:	00f687b3          	add	a5,a3,a5
800005cc:	00e78023          	sb	a4,0(a5)
800005d0:	100097b7          	lui	a5,0x10009
800005d4:	0b478713          	addi	a4,a5,180 # 100090b4 <ifm_use>
800005d8:	fec42783          	lw	a5,-20(s0)
800005dc:	00279793          	slli	a5,a5,0x2
800005e0:	00f707b3          	add	a5,a4,a5
800005e4:	fcc42703          	lw	a4,-52(s0)
800005e8:	00e7a023          	sw	a4,0(a5)
800005ec:	fec42783          	lw	a5,-20(s0)
800005f0:	00178793          	addi	a5,a5,1
800005f4:	fef42623          	sw	a5,-20(s0)
800005f8:	fec42703          	lw	a4,-20(s0)
800005fc:	000017b7          	lui	a5,0x1
80000600:	f0f768e3          	bltu	a4,a5,80000510 <main+0x130>
80000604:	1000d7b7          	lui	a5,0x1000d
80000608:	34478513          	addi	a0,a5,836 # 1000d344 <str6>
8000060c:	210000ef          	jal	ra,8000081c <tohost_printstr>
80000610:	100097b7          	lui	a5,0x10009
80000614:	0b478513          	addi	a0,a5,180 # 100090b4 <ifm_use>
80000618:	d61ff0ef          	jal	ra,80000378 <checksum>
8000061c:	00050793          	mv	a5,a0
80000620:	fcf42823          	sw	a5,-48(s0)
80000624:	fc042a23          	sw	zero,-44(s0)
80000628:	100007b7          	lui	a5,0x10000
8000062c:	05078613          	addi	a2,a5,80 # 10000050 <ibuf>
80000630:	fd042503          	lw	a0,-48(s0)
80000634:	fd442583          	lw	a1,-44(s0)
80000638:	760000ef          	jal	ra,80000d98 <uint64_to_str>
8000063c:	100007b7          	lui	a5,0x10000
80000640:	05078513          	addi	a0,a5,80 # 10000050 <ibuf>
80000644:	1d8000ef          	jal	ra,8000081c <tohost_printstr>
80000648:	1000d7b7          	lui	a5,0x1000d
8000064c:	36078513          	addi	a0,a5,864 # 1000d360 <chline>
80000650:	1cc000ef          	jal	ra,8000081c <tohost_printstr>
80000654:	1000d7b7          	lui	a5,0x1000d
80000658:	31c78513          	addi	a0,a5,796 # 1000d31c <str5>
8000065c:	1c0000ef          	jal	ra,8000081c <tohost_printstr>
80000660:	04100593          	li	a1,65
80000664:	00000613          	li	a2,0
80000668:	1000d7b7          	lui	a5,0x1000d
8000066c:	35078513          	addi	a0,a5,848 # 1000d350 <output_file>
80000670:	250000ef          	jal	ra,800008c0 <tohost_open>
80000674:	fea42023          	sw	a0,-32(s0)
80000678:	feb42223          	sw	a1,-28(s0)
8000067c:	000016b7          	lui	a3,0x1
80000680:	00000713          	li	a4,0
80000684:	100087b7          	lui	a5,0x10008
80000688:	0b478613          	addi	a2,a5,180 # 100080b4 <ifm_buf>
8000068c:	fe042503          	lw	a0,-32(s0)
80000690:	fe442583          	lw	a1,-28(s0)
80000694:	3a4000ef          	jal	ra,80000a38 <tohost_write>
80000698:	fe042503          	lw	a0,-32(s0)
8000069c:	fe442583          	lw	a1,-28(s0)
800006a0:	324000ef          	jal	ra,800009c4 <tohost_close>
800006a4:	00000513          	li	a0,0
800006a8:	00000593          	li	a1,0
800006ac:	060000ef          	jal	ra,8000070c <tohost_exit>
800006b0:	00000793          	li	a5,0
800006b4:	00078513          	mv	a0,a5
800006b8:	04c12083          	lw	ra,76(sp)
800006bc:	04812403          	lw	s0,72(sp)
800006c0:	04412483          	lw	s1,68(sp)
800006c4:	05010113          	addi	sp,sp,80
800006c8:	00008067          	ret

800006cc <payload>:
800006cc:	fe010113          	addi	sp,sp,-32
800006d0:	00812e23          	sw	s0,28(sp)
800006d4:	02010413          	addi	s0,sp,32
800006d8:	fea42423          	sw	a0,-24(s0)
800006dc:	feb42623          	sw	a1,-20(s0)
800006e0:	fe842683          	lw	a3,-24(s0)
800006e4:	fff6f713          	andi	a4,a3,-1
800006e8:	fec42603          	lw	a2,-20(s0)
800006ec:	000106b7          	lui	a3,0x10
800006f0:	fff68693          	addi	a3,a3,-1 # ffff <tohost-0xfff0001>
800006f4:	00d677b3          	and	a5,a2,a3
800006f8:	00070513          	mv	a0,a4
800006fc:	00078593          	mv	a1,a5
80000700:	01c12403          	lw	s0,28(sp)
80000704:	02010113          	addi	sp,sp,32
80000708:	00008067          	ret

8000070c <tohost_exit>:
8000070c:	fe010113          	addi	sp,sp,-32
80000710:	00812e23          	sw	s0,28(sp)
80000714:	02010413          	addi	s0,sp,32
80000718:	fea42423          	sw	a0,-24(s0)
8000071c:	feb42623          	sw	a1,-20(s0)
80000720:	fe842583          	lw	a1,-24(s0)
80000724:	01f5d593          	srli	a1,a1,0x1f
80000728:	fec42503          	lw	a0,-20(s0)
8000072c:	00151793          	slli	a5,a0,0x1
80000730:	00f5e7b3          	or	a5,a1,a5
80000734:	fe842583          	lw	a1,-24(s0)
80000738:	00159713          	slli	a4,a1,0x1
8000073c:	00176613          	ori	a2,a4,1
80000740:	0007e693          	ori	a3,a5,0
80000744:	100005b7          	lui	a1,0x10000
80000748:	00c5a023          	sw	a2,0(a1) # 10000000 <tohost>
8000074c:	00d5a223          	sw	a3,4(a1)
80000750:	fd1ff06f          	j	80000720 <tohost_exit+0x14>

80000754 <send_syscall>:
80000754:	ff010113          	addi	sp,sp,-16
80000758:	00812623          	sw	s0,12(sp)
8000075c:	01010413          	addi	s0,sp,16
80000760:	100006b7          	lui	a3,0x10000
80000764:	01068693          	addi	a3,a3,16 # 10000010 <tohost_cmd>
80000768:	00068713          	mv	a4,a3
8000076c:	00000793          	li	a5,0
80000770:	100006b7          	lui	a3,0x10000
80000774:	00e6a023          	sw	a4,0(a3) # 10000000 <tohost>
80000778:	00f6a223          	sw	a5,4(a3)
8000077c:	00000013          	nop
80000780:	100007b7          	lui	a5,0x10000
80000784:	0087a603          	lw	a2,8(a5) # 10000008 <fromhost>
80000788:	00c7a683          	lw	a3,12(a5)
8000078c:	00060793          	mv	a5,a2
80000790:	00d7e7b3          	or	a5,a5,a3
80000794:	fe0786e3          	beqz	a5,80000780 <send_syscall+0x2c>
80000798:	100007b7          	lui	a5,0x10000
8000079c:	00000693          	li	a3,0
800007a0:	00000713          	li	a4,0
800007a4:	00d7a423          	sw	a3,8(a5) # 10000008 <fromhost>
800007a8:	00e7a623          	sw	a4,12(a5)
800007ac:	00000013          	nop
800007b0:	00c12403          	lw	s0,12(sp)
800007b4:	01010113          	addi	sp,sp,16
800007b8:	00008067          	ret

800007bc <strlen_e>:
800007bc:	fd010113          	addi	sp,sp,-48
800007c0:	02812623          	sw	s0,44(sp)
800007c4:	03010413          	addi	s0,sp,48
800007c8:	fca42e23          	sw	a0,-36(s0)
800007cc:	fe042623          	sw	zero,-20(s0)
800007d0:	0100006f          	j	800007e0 <strlen_e+0x24>
800007d4:	fec42783          	lw	a5,-20(s0)
800007d8:	00178793          	addi	a5,a5,1
800007dc:	fef42623          	sw	a5,-20(s0)
800007e0:	fdc42703          	lw	a4,-36(s0)
800007e4:	fec42783          	lw	a5,-20(s0)
800007e8:	00f707b3          	add	a5,a4,a5
800007ec:	0007c783          	lbu	a5,0(a5)
800007f0:	fe0792e3          	bnez	a5,800007d4 <strlen_e+0x18>
800007f4:	fec42783          	lw	a5,-20(s0)
800007f8:	00078613          	mv	a2,a5
800007fc:	00000693          	li	a3,0
80000800:	00060713          	mv	a4,a2
80000804:	00068793          	mv	a5,a3
80000808:	00070513          	mv	a0,a4
8000080c:	00078593          	mv	a1,a5
80000810:	02c12403          	lw	s0,44(sp)
80000814:	03010113          	addi	sp,sp,48
80000818:	00008067          	ret

8000081c <tohost_printstr>:
8000081c:	fd010113          	addi	sp,sp,-48
80000820:	02112623          	sw	ra,44(sp)
80000824:	02812423          	sw	s0,40(sp)
80000828:	03010413          	addi	s0,sp,48
8000082c:	fca42e23          	sw	a0,-36(s0)
80000830:	fe042623          	sw	zero,-20(s0)
80000834:	0340006f          	j	80000868 <tohost_printstr+0x4c>
80000838:	100007b7          	lui	a5,0x10000
8000083c:	01078713          	addi	a4,a5,16 # 10000010 <tohost_cmd>
80000840:	fec42783          	lw	a5,-20(s0)
80000844:	00379793          	slli	a5,a5,0x3
80000848:	00f707b3          	add	a5,a4,a5
8000084c:	00000513          	li	a0,0
80000850:	00000593          	li	a1,0
80000854:	00a7a023          	sw	a0,0(a5)
80000858:	00b7a223          	sw	a1,4(a5)
8000085c:	fec42783          	lw	a5,-20(s0)
80000860:	00178793          	addi	a5,a5,1
80000864:	fef42623          	sw	a5,-20(s0)
80000868:	fec42703          	lw	a4,-20(s0)
8000086c:	00700793          	li	a5,7
80000870:	fce7f4e3          	bgeu	a5,a4,80000838 <tohost_printstr+0x1c>
80000874:	100007b7          	lui	a5,0x10000
80000878:	01078593          	addi	a1,a5,16 # 10000010 <tohost_cmd>
8000087c:	7dc00713          	li	a4,2012
80000880:	00000793          	li	a5,0
80000884:	00e5a023          	sw	a4,0(a1)
80000888:	00f5a223          	sw	a5,4(a1)
8000088c:	fdc42783          	lw	a5,-36(s0)
80000890:	00078613          	mv	a2,a5
80000894:	00000693          	li	a3,0
80000898:	100007b7          	lui	a5,0x10000
8000089c:	01078793          	addi	a5,a5,16 # 10000010 <tohost_cmd>
800008a0:	00c7a423          	sw	a2,8(a5)
800008a4:	00d7a623          	sw	a3,12(a5)
800008a8:	eadff0ef          	jal	ra,80000754 <send_syscall>
800008ac:	00000013          	nop
800008b0:	02c12083          	lw	ra,44(sp)
800008b4:	02812403          	lw	s0,40(sp)
800008b8:	03010113          	addi	sp,sp,48
800008bc:	00008067          	ret

800008c0 <tohost_open>:
800008c0:	fe010113          	addi	sp,sp,-32
800008c4:	00112e23          	sw	ra,28(sp)
800008c8:	00812c23          	sw	s0,24(sp)
800008cc:	02010413          	addi	s0,sp,32
800008d0:	fea42623          	sw	a0,-20(s0)
800008d4:	feb42023          	sw	a1,-32(s0)
800008d8:	fec42223          	sw	a2,-28(s0)
800008dc:	100007b7          	lui	a5,0x10000
800008e0:	01078693          	addi	a3,a5,16 # 10000010 <tohost_cmd>
800008e4:	03800713          	li	a4,56
800008e8:	00000793          	li	a5,0
800008ec:	00e6a023          	sw	a4,0(a3)
800008f0:	00f6a223          	sw	a5,4(a3)
800008f4:	100007b7          	lui	a5,0x10000
800008f8:	01078693          	addi	a3,a5,16 # 10000010 <tohost_cmd>
800008fc:	f9c00713          	li	a4,-100
80000900:	fff00793          	li	a5,-1
80000904:	00e6a423          	sw	a4,8(a3)
80000908:	00f6a623          	sw	a5,12(a3)
8000090c:	fec42783          	lw	a5,-20(s0)
80000910:	00078813          	mv	a6,a5
80000914:	00000893          	li	a7,0
80000918:	100007b7          	lui	a5,0x10000
8000091c:	01078793          	addi	a5,a5,16 # 10000010 <tohost_cmd>
80000920:	0107a823          	sw	a6,16(a5)
80000924:	0117aa23          	sw	a7,20(a5)
80000928:	fec42503          	lw	a0,-20(s0)
8000092c:	e91ff0ef          	jal	ra,800007bc <strlen_e>
80000930:	00050613          	mv	a2,a0
80000934:	00058693          	mv	a3,a1
80000938:	00100513          	li	a0,1
8000093c:	00000593          	li	a1,0
80000940:	00a60733          	add	a4,a2,a0
80000944:	00070813          	mv	a6,a4
80000948:	00c83833          	sltu	a6,a6,a2
8000094c:	00b687b3          	add	a5,a3,a1
80000950:	00f806b3          	add	a3,a6,a5
80000954:	00068793          	mv	a5,a3
80000958:	100006b7          	lui	a3,0x10000
8000095c:	01068693          	addi	a3,a3,16 # 10000010 <tohost_cmd>
80000960:	00e6ac23          	sw	a4,24(a3)
80000964:	00f6ae23          	sw	a5,28(a3)
80000968:	100007b7          	lui	a5,0x10000
8000096c:	01078693          	addi	a3,a5,16 # 10000010 <tohost_cmd>
80000970:	fe042703          	lw	a4,-32(s0)
80000974:	fe442783          	lw	a5,-28(s0)
80000978:	02e6a023          	sw	a4,32(a3)
8000097c:	02f6a223          	sw	a5,36(a3)
80000980:	100007b7          	lui	a5,0x10000
80000984:	01078693          	addi	a3,a5,16 # 10000010 <tohost_cmd>
80000988:	1ff00713          	li	a4,511
8000098c:	00000793          	li	a5,0
80000990:	02e6a423          	sw	a4,40(a3)
80000994:	02f6a623          	sw	a5,44(a3)
80000998:	dbdff0ef          	jal	ra,80000754 <send_syscall>
8000099c:	100007b7          	lui	a5,0x10000
800009a0:	01078793          	addi	a5,a5,16 # 10000010 <tohost_cmd>
800009a4:	0007a703          	lw	a4,0(a5)
800009a8:	0047a783          	lw	a5,4(a5)
800009ac:	00070513          	mv	a0,a4
800009b0:	00078593          	mv	a1,a5
800009b4:	01c12083          	lw	ra,28(sp)
800009b8:	01812403          	lw	s0,24(sp)
800009bc:	02010113          	addi	sp,sp,32
800009c0:	00008067          	ret

800009c4 <tohost_close>:
800009c4:	fe010113          	addi	sp,sp,-32
800009c8:	00112e23          	sw	ra,28(sp)
800009cc:	00812c23          	sw	s0,24(sp)
800009d0:	02010413          	addi	s0,sp,32
800009d4:	fea42423          	sw	a0,-24(s0)
800009d8:	feb42623          	sw	a1,-20(s0)
800009dc:	100007b7          	lui	a5,0x10000
800009e0:	01078693          	addi	a3,a5,16 # 10000010 <tohost_cmd>
800009e4:	03900713          	li	a4,57
800009e8:	00000793          	li	a5,0
800009ec:	00e6a023          	sw	a4,0(a3)
800009f0:	00f6a223          	sw	a5,4(a3)
800009f4:	100007b7          	lui	a5,0x10000
800009f8:	01078693          	addi	a3,a5,16 # 10000010 <tohost_cmd>
800009fc:	fe842703          	lw	a4,-24(s0)
80000a00:	fec42783          	lw	a5,-20(s0)
80000a04:	00e6a423          	sw	a4,8(a3)
80000a08:	00f6a623          	sw	a5,12(a3)
80000a0c:	d49ff0ef          	jal	ra,80000754 <send_syscall>
80000a10:	100007b7          	lui	a5,0x10000
80000a14:	01078793          	addi	a5,a5,16 # 10000010 <tohost_cmd>
80000a18:	0007a703          	lw	a4,0(a5)
80000a1c:	0047a783          	lw	a5,4(a5)
80000a20:	00070513          	mv	a0,a4
80000a24:	00078593          	mv	a1,a5
80000a28:	01c12083          	lw	ra,28(sp)
80000a2c:	01812403          	lw	s0,24(sp)
80000a30:	02010113          	addi	sp,sp,32
80000a34:	00008067          	ret

80000a38 <tohost_write>:
80000a38:	fd010113          	addi	sp,sp,-48
80000a3c:	02112623          	sw	ra,44(sp)
80000a40:	02812423          	sw	s0,40(sp)
80000a44:	03010413          	addi	s0,sp,48
80000a48:	fea42423          	sw	a0,-24(s0)
80000a4c:	feb42623          	sw	a1,-20(s0)
80000a50:	fec42223          	sw	a2,-28(s0)
80000a54:	fcd42c23          	sw	a3,-40(s0)
80000a58:	fce42e23          	sw	a4,-36(s0)
80000a5c:	100007b7          	lui	a5,0x10000
80000a60:	01078693          	addi	a3,a5,16 # 10000010 <tohost_cmd>
80000a64:	04000713          	li	a4,64
80000a68:	00000793          	li	a5,0
80000a6c:	00e6a023          	sw	a4,0(a3)
80000a70:	00f6a223          	sw	a5,4(a3)
80000a74:	100007b7          	lui	a5,0x10000
80000a78:	01078693          	addi	a3,a5,16 # 10000010 <tohost_cmd>
80000a7c:	fe842703          	lw	a4,-24(s0)
80000a80:	fec42783          	lw	a5,-20(s0)
80000a84:	00e6a423          	sw	a4,8(a3)
80000a88:	00f6a623          	sw	a5,12(a3)
80000a8c:	fe442783          	lw	a5,-28(s0)
80000a90:	00078813          	mv	a6,a5
80000a94:	00000893          	li	a7,0
80000a98:	100007b7          	lui	a5,0x10000
80000a9c:	01078793          	addi	a5,a5,16 # 10000010 <tohost_cmd>
80000aa0:	0107a823          	sw	a6,16(a5)
80000aa4:	0117aa23          	sw	a7,20(a5)
80000aa8:	100007b7          	lui	a5,0x10000
80000aac:	01078693          	addi	a3,a5,16 # 10000010 <tohost_cmd>
80000ab0:	fd842703          	lw	a4,-40(s0)
80000ab4:	fdc42783          	lw	a5,-36(s0)
80000ab8:	00e6ac23          	sw	a4,24(a3)
80000abc:	00f6ae23          	sw	a5,28(a3)
80000ac0:	c95ff0ef          	jal	ra,80000754 <send_syscall>
80000ac4:	100007b7          	lui	a5,0x10000
80000ac8:	01078793          	addi	a5,a5,16 # 10000010 <tohost_cmd>
80000acc:	0007a703          	lw	a4,0(a5)
80000ad0:	0047a783          	lw	a5,4(a5)
80000ad4:	00070513          	mv	a0,a4
80000ad8:	00078593          	mv	a1,a5
80000adc:	02c12083          	lw	ra,44(sp)
80000ae0:	02812403          	lw	s0,40(sp)
80000ae4:	03010113          	addi	sp,sp,48
80000ae8:	00008067          	ret

80000aec <tohost_read>:
80000aec:	fd010113          	addi	sp,sp,-48
80000af0:	02112623          	sw	ra,44(sp)
80000af4:	02812423          	sw	s0,40(sp)
80000af8:	03010413          	addi	s0,sp,48
80000afc:	fea42423          	sw	a0,-24(s0)
80000b00:	feb42623          	sw	a1,-20(s0)
80000b04:	fec42223          	sw	a2,-28(s0)
80000b08:	fcd42c23          	sw	a3,-40(s0)
80000b0c:	fce42e23          	sw	a4,-36(s0)
80000b10:	100007b7          	lui	a5,0x10000
80000b14:	01078693          	addi	a3,a5,16 # 10000010 <tohost_cmd>
80000b18:	03f00713          	li	a4,63
80000b1c:	00000793          	li	a5,0
80000b20:	00e6a023          	sw	a4,0(a3)
80000b24:	00f6a223          	sw	a5,4(a3)
80000b28:	100007b7          	lui	a5,0x10000
80000b2c:	01078693          	addi	a3,a5,16 # 10000010 <tohost_cmd>
80000b30:	fe842703          	lw	a4,-24(s0)
80000b34:	fec42783          	lw	a5,-20(s0)
80000b38:	00e6a423          	sw	a4,8(a3)
80000b3c:	00f6a623          	sw	a5,12(a3)
80000b40:	fe442783          	lw	a5,-28(s0)
80000b44:	00078813          	mv	a6,a5
80000b48:	00000893          	li	a7,0
80000b4c:	100007b7          	lui	a5,0x10000
80000b50:	01078793          	addi	a5,a5,16 # 10000010 <tohost_cmd>
80000b54:	0107a823          	sw	a6,16(a5)
80000b58:	0117aa23          	sw	a7,20(a5)
80000b5c:	100007b7          	lui	a5,0x10000
80000b60:	01078693          	addi	a3,a5,16 # 10000010 <tohost_cmd>
80000b64:	fd842703          	lw	a4,-40(s0)
80000b68:	fdc42783          	lw	a5,-36(s0)
80000b6c:	00e6ac23          	sw	a4,24(a3)
80000b70:	00f6ae23          	sw	a5,28(a3)
80000b74:	be1ff0ef          	jal	ra,80000754 <send_syscall>
80000b78:	100007b7          	lui	a5,0x10000
80000b7c:	01078793          	addi	a5,a5,16 # 10000010 <tohost_cmd>
80000b80:	0007a703          	lw	a4,0(a5)
80000b84:	0047a783          	lw	a5,4(a5)
80000b88:	00070513          	mv	a0,a4
80000b8c:	00078593          	mv	a1,a5
80000b90:	02c12083          	lw	ra,44(sp)
80000b94:	02812403          	lw	s0,40(sp)
80000b98:	03010113          	addi	sp,sp,48
80000b9c:	00008067          	ret

80000ba0 <get_digit>:
80000ba0:	fd010113          	addi	sp,sp,-48
80000ba4:	02812623          	sw	s0,44(sp)
80000ba8:	03010413          	addi	s0,sp,48
80000bac:	fca42c23          	sw	a0,-40(s0)
80000bb0:	fcb42e23          	sw	a1,-36(s0)
80000bb4:	fcc42823          	sw	a2,-48(s0)
80000bb8:	fcd42a23          	sw	a3,-44(s0)
80000bbc:	00000793          	li	a5,0
80000bc0:	00000813          	li	a6,0
80000bc4:	fef42423          	sw	a5,-24(s0)
80000bc8:	ff042623          	sw	a6,-20(s0)
80000bcc:	0640006f          	j	80000c30 <get_digit+0x90>
80000bd0:	fd042603          	lw	a2,-48(s0)
80000bd4:	fd442683          	lw	a3,-44(s0)
80000bd8:	fd842503          	lw	a0,-40(s0)
80000bdc:	fdc42583          	lw	a1,-36(s0)
80000be0:	40a60733          	sub	a4,a2,a0
80000be4:	00070813          	mv	a6,a4
80000be8:	01063833          	sltu	a6,a2,a6
80000bec:	40b687b3          	sub	a5,a3,a1
80000bf0:	410786b3          	sub	a3,a5,a6
80000bf4:	00068793          	mv	a5,a3
80000bf8:	fce42823          	sw	a4,-48(s0)
80000bfc:	fcf42a23          	sw	a5,-44(s0)
80000c00:	fe842603          	lw	a2,-24(s0)
80000c04:	fec42683          	lw	a3,-20(s0)
80000c08:	00100513          	li	a0,1
80000c0c:	00000593          	li	a1,0
80000c10:	00a60733          	add	a4,a2,a0
80000c14:	00070813          	mv	a6,a4
80000c18:	00c83833          	sltu	a6,a6,a2
80000c1c:	00b687b3          	add	a5,a3,a1
80000c20:	00f806b3          	add	a3,a6,a5
80000c24:	00068793          	mv	a5,a3
80000c28:	fee42423          	sw	a4,-24(s0)
80000c2c:	fef42623          	sw	a5,-20(s0)
80000c30:	fdc42703          	lw	a4,-36(s0)
80000c34:	fd442783          	lw	a5,-44(s0)
80000c38:	02e7ec63          	bltu	a5,a4,80000c70 <get_digit+0xd0>
80000c3c:	fdc42703          	lw	a4,-36(s0)
80000c40:	fd442783          	lw	a5,-44(s0)
80000c44:	00f71863          	bne	a4,a5,80000c54 <get_digit+0xb4>
80000c48:	fd842703          	lw	a4,-40(s0)
80000c4c:	fd042783          	lw	a5,-48(s0)
80000c50:	02e7e063          	bltu	a5,a4,80000c70 <get_digit+0xd0>
80000c54:	fec42783          	lw	a5,-20(s0)
80000c58:	00079c63          	bnez	a5,80000c70 <get_digit+0xd0>
80000c5c:	fec42783          	lw	a5,-20(s0)
80000c60:	f60798e3          	bnez	a5,80000bd0 <get_digit+0x30>
80000c64:	fe842703          	lw	a4,-24(s0)
80000c68:	00800793          	li	a5,8
80000c6c:	f6e7f2e3          	bgeu	a5,a4,80000bd0 <get_digit+0x30>
80000c70:	fdc42703          	lw	a4,-36(s0)
80000c74:	fd442783          	lw	a5,-44(s0)
80000c78:	02e7e663          	bltu	a5,a4,80000ca4 <get_digit+0x104>
80000c7c:	fdc42703          	lw	a4,-36(s0)
80000c80:	fd442783          	lw	a5,-44(s0)
80000c84:	00f71863          	bne	a4,a5,80000c94 <get_digit+0xf4>
80000c88:	fd842703          	lw	a4,-40(s0)
80000c8c:	fd042783          	lw	a5,-48(s0)
80000c90:	00e7ea63          	bltu	a5,a4,80000ca4 <get_digit+0x104>
80000c94:	00000793          	li	a5,0
80000c98:	00000813          	li	a6,0
80000c9c:	fef42423          	sw	a5,-24(s0)
80000ca0:	ff042623          	sw	a6,-20(s0)
80000ca4:	fe842703          	lw	a4,-24(s0)
80000ca8:	fec42783          	lw	a5,-20(s0)
80000cac:	00070513          	mv	a0,a4
80000cb0:	00078593          	mv	a1,a5
80000cb4:	02c12403          	lw	s0,44(sp)
80000cb8:	03010113          	addi	sp,sp,48
80000cbc:	00008067          	ret

80000cc0 <mul>:
80000cc0:	fd010113          	addi	sp,sp,-48
80000cc4:	02812623          	sw	s0,44(sp)
80000cc8:	03010413          	addi	s0,sp,48
80000ccc:	fca42c23          	sw	a0,-40(s0)
80000cd0:	fcb42e23          	sw	a1,-36(s0)
80000cd4:	fcc42823          	sw	a2,-48(s0)
80000cd8:	fcd42a23          	sw	a3,-44(s0)
80000cdc:	00000793          	li	a5,0
80000ce0:	00000813          	li	a6,0
80000ce4:	fef42423          	sw	a5,-24(s0)
80000ce8:	ff042623          	sw	a6,-20(s0)
80000cec:	fef42023          	sw	a5,-32(s0)
80000cf0:	ff042223          	sw	a6,-28(s0)
80000cf4:	0640006f          	j	80000d58 <mul+0x98>
80000cf8:	fe842603          	lw	a2,-24(s0)
80000cfc:	fec42683          	lw	a3,-20(s0)
80000d00:	fd842503          	lw	a0,-40(s0)
80000d04:	fdc42583          	lw	a1,-36(s0)
80000d08:	00a60733          	add	a4,a2,a0
80000d0c:	00070813          	mv	a6,a4
80000d10:	00c83833          	sltu	a6,a6,a2
80000d14:	00b687b3          	add	a5,a3,a1
80000d18:	00f806b3          	add	a3,a6,a5
80000d1c:	00068793          	mv	a5,a3
80000d20:	fee42423          	sw	a4,-24(s0)
80000d24:	fef42623          	sw	a5,-20(s0)
80000d28:	fe042603          	lw	a2,-32(s0)
80000d2c:	fe442683          	lw	a3,-28(s0)
80000d30:	00100513          	li	a0,1
80000d34:	00000593          	li	a1,0
80000d38:	00a60733          	add	a4,a2,a0
80000d3c:	00070813          	mv	a6,a4
80000d40:	00c83833          	sltu	a6,a6,a2
80000d44:	00b687b3          	add	a5,a3,a1
80000d48:	00f806b3          	add	a3,a6,a5
80000d4c:	00068793          	mv	a5,a3
80000d50:	fee42023          	sw	a4,-32(s0)
80000d54:	fef42223          	sw	a5,-28(s0)
80000d58:	fd442703          	lw	a4,-44(s0)
80000d5c:	fe442783          	lw	a5,-28(s0)
80000d60:	f8e7ece3          	bltu	a5,a4,80000cf8 <mul+0x38>
80000d64:	fd442703          	lw	a4,-44(s0)
80000d68:	fe442783          	lw	a5,-28(s0)
80000d6c:	00f71863          	bne	a4,a5,80000d7c <mul+0xbc>
80000d70:	fd042703          	lw	a4,-48(s0)
80000d74:	fe042783          	lw	a5,-32(s0)
80000d78:	f8e7e0e3          	bltu	a5,a4,80000cf8 <mul+0x38>
80000d7c:	fe842703          	lw	a4,-24(s0)
80000d80:	fec42783          	lw	a5,-20(s0)
80000d84:	00070513          	mv	a0,a4
80000d88:	00078593          	mv	a1,a5
80000d8c:	02c12403          	lw	s0,44(sp)
80000d90:	03010113          	addi	sp,sp,48
80000d94:	00008067          	ret

80000d98 <uint64_to_str>:
80000d98:	fb010113          	addi	sp,sp,-80
80000d9c:	04112623          	sw	ra,76(sp)
80000da0:	04812423          	sw	s0,72(sp)
80000da4:	05212223          	sw	s2,68(sp)
80000da8:	05312023          	sw	s3,64(sp)
80000dac:	03412e23          	sw	s4,60(sp)
80000db0:	03512c23          	sw	s5,56(sp)
80000db4:	03612a23          	sw	s6,52(sp)
80000db8:	03712823          	sw	s7,48(sp)
80000dbc:	03812623          	sw	s8,44(sp)
80000dc0:	03912423          	sw	s9,40(sp)
80000dc4:	03a12223          	sw	s10,36(sp)
80000dc8:	03b12023          	sw	s11,32(sp)
80000dcc:	05010413          	addi	s0,sp,80
80000dd0:	faa42c23          	sw	a0,-72(s0)
80000dd4:	fab42e23          	sw	a1,-68(s0)
80000dd8:	fac42a23          	sw	a2,-76(s0)
80000ddc:	fc042223          	sw	zero,-60(s0)
80000de0:	fc042623          	sw	zero,-52(s0)
80000de4:	fc042423          	sw	zero,-56(s0)
80000de8:	1000d7b7          	lui	a5,0x1000d
80000dec:	0b478793          	addi	a5,a5,180 # 1000d0b4 <base.0>
80000df0:	00100713          	li	a4,1
80000df4:	00e7a223          	sw	a4,4(a5)
80000df8:	00200793          	li	a5,2
80000dfc:	fcf42423          	sw	a5,-56(s0)
80000e00:	06c0006f          	j	80000e6c <uint64_to_str+0xd4>
80000e04:	fc842783          	lw	a5,-56(s0)
80000e08:	fff78793          	addi	a5,a5,-1
80000e0c:	1000d737          	lui	a4,0x1000d
80000e10:	0b470713          	addi	a4,a4,180 # 1000d0b4 <base.0>
80000e14:	00279793          	slli	a5,a5,0x2
80000e18:	00f707b3          	add	a5,a4,a5
80000e1c:	0007a783          	lw	a5,0(a5)
80000e20:	00078d13          	mv	s10,a5
80000e24:	00000d93          	li	s11,0
80000e28:	00a00613          	li	a2,10
80000e2c:	00000693          	li	a3,0
80000e30:	000d0513          	mv	a0,s10
80000e34:	000d8593          	mv	a1,s11
80000e38:	e89ff0ef          	jal	ra,80000cc0 <mul>
80000e3c:	00050713          	mv	a4,a0
80000e40:	00058793          	mv	a5,a1
80000e44:	00070693          	mv	a3,a4
80000e48:	1000d7b7          	lui	a5,0x1000d
80000e4c:	0b478713          	addi	a4,a5,180 # 1000d0b4 <base.0>
80000e50:	fc842783          	lw	a5,-56(s0)
80000e54:	00279793          	slli	a5,a5,0x2
80000e58:	00f707b3          	add	a5,a4,a5
80000e5c:	00d7a023          	sw	a3,0(a5)
80000e60:	fc842783          	lw	a5,-56(s0)
80000e64:	00178793          	addi	a5,a5,1
80000e68:	fcf42423          	sw	a5,-56(s0)
80000e6c:	fc842703          	lw	a4,-56(s0)
80000e70:	06300793          	li	a5,99
80000e74:	f8e7f8e3          	bgeu	a5,a4,80000e04 <uint64_to_str+0x6c>
80000e78:	00100793          	li	a5,1
80000e7c:	fcf42423          	sw	a5,-56(s0)
80000e80:	0100006f          	j	80000e90 <uint64_to_str+0xf8>
80000e84:	fc842783          	lw	a5,-56(s0)
80000e88:	00178793          	addi	a5,a5,1
80000e8c:	fcf42423          	sw	a5,-56(s0)
80000e90:	1000d7b7          	lui	a5,0x1000d
80000e94:	0b478713          	addi	a4,a5,180 # 1000d0b4 <base.0>
80000e98:	fc842783          	lw	a5,-56(s0)
80000e9c:	00279793          	slli	a5,a5,0x2
80000ea0:	00f707b3          	add	a5,a4,a5
80000ea4:	0007a783          	lw	a5,0(a5)
80000ea8:	fff78793          	addi	a5,a5,-1
80000eac:	00078913          	mv	s2,a5
80000eb0:	00000993          	li	s3,0
80000eb4:	fbc42783          	lw	a5,-68(s0)
80000eb8:	00098713          	mv	a4,s3
80000ebc:	fcf764e3          	bltu	a4,a5,80000e84 <uint64_to_str+0xec>
80000ec0:	fbc42783          	lw	a5,-68(s0)
80000ec4:	00098713          	mv	a4,s3
80000ec8:	00e79863          	bne	a5,a4,80000ed8 <uint64_to_str+0x140>
80000ecc:	fb842783          	lw	a5,-72(s0)
80000ed0:	00090713          	mv	a4,s2
80000ed4:	faf768e3          	bltu	a4,a5,80000e84 <uint64_to_str+0xec>
80000ed8:	fc842783          	lw	a5,-56(s0)
80000edc:	fff78793          	addi	a5,a5,-1
80000ee0:	fcf42423          	sw	a5,-56(s0)
80000ee4:	0e00006f          	j	80000fc4 <uint64_to_str+0x22c>
80000ee8:	1000d7b7          	lui	a5,0x1000d
80000eec:	0b478713          	addi	a4,a5,180 # 1000d0b4 <base.0>
80000ef0:	fc842783          	lw	a5,-56(s0)
80000ef4:	00279793          	slli	a5,a5,0x2
80000ef8:	00f707b3          	add	a5,a4,a5
80000efc:	0007a783          	lw	a5,0(a5)
80000f00:	00078a13          	mv	s4,a5
80000f04:	00000a93          	li	s5,0
80000f08:	fb842603          	lw	a2,-72(s0)
80000f0c:	fbc42683          	lw	a3,-68(s0)
80000f10:	000a0513          	mv	a0,s4
80000f14:	000a8593          	mv	a1,s5
80000f18:	c89ff0ef          	jal	ra,80000ba0 <get_digit>
80000f1c:	00050713          	mv	a4,a0
80000f20:	00058793          	mv	a5,a1
80000f24:	fce42223          	sw	a4,-60(s0)
80000f28:	fc442783          	lw	a5,-60(s0)
80000f2c:	0ff7f713          	zext.b	a4,a5
80000f30:	fcc42783          	lw	a5,-52(s0)
80000f34:	00178693          	addi	a3,a5,1
80000f38:	fcd42623          	sw	a3,-52(s0)
80000f3c:	fb442683          	lw	a3,-76(s0)
80000f40:	00f687b3          	add	a5,a3,a5
80000f44:	03070713          	addi	a4,a4,48
80000f48:	0ff77713          	zext.b	a4,a4
80000f4c:	00e78023          	sb	a4,0(a5)
80000f50:	1000d7b7          	lui	a5,0x1000d
80000f54:	0b478713          	addi	a4,a5,180 # 1000d0b4 <base.0>
80000f58:	fc842783          	lw	a5,-56(s0)
80000f5c:	00279793          	slli	a5,a5,0x2
80000f60:	00f707b3          	add	a5,a4,a5
80000f64:	0007a783          	lw	a5,0(a5)
80000f68:	00078b13          	mv	s6,a5
80000f6c:	00000b93          	li	s7,0
80000f70:	fc442783          	lw	a5,-60(s0)
80000f74:	00078c13          	mv	s8,a5
80000f78:	00000c93          	li	s9,0
80000f7c:	000c0613          	mv	a2,s8
80000f80:	000c8693          	mv	a3,s9
80000f84:	000b0513          	mv	a0,s6
80000f88:	000b8593          	mv	a1,s7
80000f8c:	d35ff0ef          	jal	ra,80000cc0 <mul>
80000f90:	fb842603          	lw	a2,-72(s0)
80000f94:	fbc42683          	lw	a3,-68(s0)
80000f98:	40a60733          	sub	a4,a2,a0
80000f9c:	00070813          	mv	a6,a4
80000fa0:	01063833          	sltu	a6,a2,a6
80000fa4:	40b687b3          	sub	a5,a3,a1
80000fa8:	410786b3          	sub	a3,a5,a6
80000fac:	00068793          	mv	a5,a3
80000fb0:	fae42c23          	sw	a4,-72(s0)
80000fb4:	faf42e23          	sw	a5,-68(s0)
80000fb8:	fc842783          	lw	a5,-56(s0)
80000fbc:	fff78793          	addi	a5,a5,-1
80000fc0:	fcf42423          	sw	a5,-56(s0)
80000fc4:	fb842783          	lw	a5,-72(s0)
80000fc8:	fbc42703          	lw	a4,-68(s0)
80000fcc:	00e7e7b3          	or	a5,a5,a4
80000fd0:	f0079ce3          	bnez	a5,80000ee8 <uint64_to_str+0x150>
80000fd4:	fcc42783          	lw	a5,-52(s0)
80000fd8:	02079063          	bnez	a5,80000ff8 <uint64_to_str+0x260>
80000fdc:	fcc42783          	lw	a5,-52(s0)
80000fe0:	00178713          	addi	a4,a5,1
80000fe4:	fce42623          	sw	a4,-52(s0)
80000fe8:	fb442703          	lw	a4,-76(s0)
80000fec:	00f707b3          	add	a5,a4,a5
80000ff0:	03000713          	li	a4,48
80000ff4:	00e78023          	sb	a4,0(a5)
80000ff8:	fb442703          	lw	a4,-76(s0)
80000ffc:	fcc42783          	lw	a5,-52(s0)
80001000:	00f707b3          	add	a5,a4,a5
80001004:	00078023          	sb	zero,0(a5)
80001008:	00000013          	nop
8000100c:	04c12083          	lw	ra,76(sp)
80001010:	04812403          	lw	s0,72(sp)
80001014:	04412903          	lw	s2,68(sp)
80001018:	04012983          	lw	s3,64(sp)
8000101c:	03c12a03          	lw	s4,60(sp)
80001020:	03812a83          	lw	s5,56(sp)
80001024:	03412b03          	lw	s6,52(sp)
80001028:	03012b83          	lw	s7,48(sp)
8000102c:	02c12c03          	lw	s8,44(sp)
80001030:	02812c83          	lw	s9,40(sp)
80001034:	02412d03          	lw	s10,36(sp)
80001038:	02012d83          	lw	s11,32(sp)
8000103c:	05010113          	addi	sp,sp,80
80001040:	00008067          	ret

80001044 <_start>:
80001044:	20000137          	lui	sp,0x20000
80001048:	b98ff06f          	j	800003e0 <main>
