
sobel.elf:     file format elf32-littleriscv


Disassembly of section .text:

10000000 <_start>:
10000000:	80010137          	lui	x2,0x80010
10000004:	ff010113          	addi	x2,x2,-16 # 8000fff0 <ofm_y+0x7000bae0>
10000008:	37c000ef          	jal	x1,10000384 <main>

1000000c <times>:
1000000c:	fd010113          	addi	x2,x2,-48
10000010:	02812623          	sw	x8,44(x2)
10000014:	03010413          	addi	x8,x2,48
10000018:	fca42e23          	sw	x10,-36(x8)
1000001c:	fcb42c23          	sw	x11,-40(x8)
10000020:	fdc42783          	lw	x15,-36(x8)
10000024:	01f7d793          	srli	x15,x15,0x1f
10000028:	0ff7f793          	zext.b	x15,x15
1000002c:	fef42423          	sw	x15,-24(x8)
10000030:	fd842783          	lw	x15,-40(x8)
10000034:	01f7d793          	srli	x15,x15,0x1f
10000038:	0ff7f793          	zext.b	x15,x15
1000003c:	fef42223          	sw	x15,-28(x8)
10000040:	fe042623          	sw	x0,-20(x8)
10000044:	fe842783          	lw	x15,-24(x8)
10000048:	00078863          	beqz	x15,10000058 <times+0x4c>
1000004c:	fdc42783          	lw	x15,-36(x8)
10000050:	40f007b3          	neg	x15,x15
10000054:	fcf42e23          	sw	x15,-36(x8)
10000058:	fe442783          	lw	x15,-28(x8)
1000005c:	04078463          	beqz	x15,100000a4 <times+0x98>
10000060:	fd842783          	lw	x15,-40(x8)
10000064:	40f007b3          	neg	x15,x15
10000068:	fcf42c23          	sw	x15,-40(x8)
1000006c:	0380006f          	j	100000a4 <times+0x98>
10000070:	fd842783          	lw	x15,-40(x8)
10000074:	0017f793          	andi	x15,x15,1
10000078:	00078a63          	beqz	x15,1000008c <times+0x80>
1000007c:	fec42703          	lw	x14,-20(x8)
10000080:	fdc42783          	lw	x15,-36(x8)
10000084:	00f707b3          	add	x15,x14,x15
10000088:	fef42623          	sw	x15,-20(x8)
1000008c:	fdc42783          	lw	x15,-36(x8)
10000090:	00179793          	slli	x15,x15,0x1
10000094:	fcf42e23          	sw	x15,-36(x8)
10000098:	fd842783          	lw	x15,-40(x8)
1000009c:	4017d793          	srai	x15,x15,0x1
100000a0:	fcf42c23          	sw	x15,-40(x8)
100000a4:	fd842783          	lw	x15,-40(x8)
100000a8:	fc0794e3          	bnez	x15,10000070 <times+0x64>
100000ac:	fe842783          	lw	x15,-24(x8)
100000b0:	00078663          	beqz	x15,100000bc <times+0xb0>
100000b4:	fe442783          	lw	x15,-28(x8)
100000b8:	00078a63          	beqz	x15,100000cc <times+0xc0>
100000bc:	fe842783          	lw	x15,-24(x8)
100000c0:	00079c63          	bnez	x15,100000d8 <times+0xcc>
100000c4:	fe442783          	lw	x15,-28(x8)
100000c8:	00078863          	beqz	x15,100000d8 <times+0xcc>
100000cc:	fec42783          	lw	x15,-20(x8)
100000d0:	40f007b3          	neg	x15,x15
100000d4:	fef42623          	sw	x15,-20(x8)
100000d8:	fec42783          	lw	x15,-20(x8)
100000dc:	00078513          	mv	x10,x15
100000e0:	02c12403          	lw	x8,44(x2)
100000e4:	03010113          	addi	x2,x2,48
100000e8:	00008067          	ret

100000ec <int_sqrt>:
100000ec:	fd010113          	addi	x2,x2,-48
100000f0:	02112623          	sw	x1,44(x2)
100000f4:	02812423          	sw	x8,40(x2)
100000f8:	03010413          	addi	x8,x2,48
100000fc:	fca42e23          	sw	x10,-36(x8)
10000100:	00200793          	li	x15,2
10000104:	fef42423          	sw	x15,-24(x8)
10000108:	fe842783          	lw	x15,-24(x8)
1000010c:	fdc42703          	lw	x14,-36(x8)
10000110:	40f757b3          	sra	x15,x14,x15
10000114:	fef42223          	sw	x15,-28(x8)
10000118:	0200006f          	j	10000138 <int_sqrt+0x4c>
1000011c:	fe842783          	lw	x15,-24(x8)
10000120:	00278793          	addi	x15,x15,2
10000124:	fef42423          	sw	x15,-24(x8)
10000128:	fe842783          	lw	x15,-24(x8)
1000012c:	fdc42703          	lw	x14,-36(x8)
10000130:	40f757b3          	sra	x15,x14,x15
10000134:	fef42223          	sw	x15,-28(x8)
10000138:	fe442783          	lw	x15,-28(x8)
1000013c:	00078863          	beqz	x15,1000014c <int_sqrt+0x60>
10000140:	fe442703          	lw	x14,-28(x8)
10000144:	fdc42783          	lw	x15,-36(x8)
10000148:	fcf71ae3          	bne	x14,x15,1000011c <int_sqrt+0x30>
1000014c:	fe842783          	lw	x15,-24(x8)
10000150:	ffe78793          	addi	x15,x15,-2
10000154:	fef42423          	sw	x15,-24(x8)
10000158:	fe042623          	sw	x0,-20(x8)
1000015c:	0500006f          	j	100001ac <int_sqrt+0xc0>
10000160:	fec42783          	lw	x15,-20(x8)
10000164:	00179793          	slli	x15,x15,0x1
10000168:	fef42623          	sw	x15,-20(x8)
1000016c:	fec42783          	lw	x15,-20(x8)
10000170:	00178793          	addi	x15,x15,1
10000174:	fef42023          	sw	x15,-32(x8)
10000178:	fe042583          	lw	x11,-32(x8)
1000017c:	fe042503          	lw	x10,-32(x8)
10000180:	e8dff0ef          	jal	x1,1000000c <times>
10000184:	00050693          	mv	x13,x10
10000188:	fe842783          	lw	x15,-24(x8)
1000018c:	fdc42703          	lw	x14,-36(x8)
10000190:	40f757b3          	sra	x15,x14,x15
10000194:	00d7c663          	blt	x15,x13,100001a0 <int_sqrt+0xb4>
10000198:	fe042783          	lw	x15,-32(x8)
1000019c:	fef42623          	sw	x15,-20(x8)
100001a0:	fe842783          	lw	x15,-24(x8)
100001a4:	ffe78793          	addi	x15,x15,-2
100001a8:	fef42423          	sw	x15,-24(x8)
100001ac:	fe842783          	lw	x15,-24(x8)
100001b0:	fa07d8e3          	bgez	x15,10000160 <int_sqrt+0x74>
100001b4:	fec42783          	lw	x15,-20(x8)
100001b8:	00078513          	mv	x10,x15
100001bc:	02c12083          	lw	x1,44(x2)
100001c0:	02812403          	lw	x8,40(x2)
100001c4:	03010113          	addi	x2,x2,48
100001c8:	00008067          	ret

100001cc <conv2D_sw>:
100001cc:	fb010113          	addi	x2,x2,-80
100001d0:	04112623          	sw	x1,76(x2)
100001d4:	04812423          	sw	x8,72(x2)
100001d8:	04912223          	sw	x9,68(x2)
100001dc:	05010413          	addi	x8,x2,80
100001e0:	faa42e23          	sw	x10,-68(x8)
100001e4:	fab42c23          	sw	x11,-72(x8)
100001e8:	fac42a23          	sw	x12,-76(x8)
100001ec:	fe042223          	sw	x0,-28(x8)
100001f0:	fe042023          	sw	x0,-32(x8)
100001f4:	fe042623          	sw	x0,-20(x8)
100001f8:	1640006f          	j	1000035c <conv2D_sw+0x190>
100001fc:	fec42783          	lw	x15,-20(x8)
10000200:	00279793          	slli	x15,x15,0x2
10000204:	fb442703          	lw	x14,-76(x8)
10000208:	00f707b3          	add	x15,x14,x15
1000020c:	0007a023          	sw	x0,0(x15)
10000210:	fc042e23          	sw	x0,-36(x8)
10000214:	fc042c23          	sw	x0,-40(x8)
10000218:	fe042423          	sw	x0,-24(x8)
1000021c:	1000006f          	j	1000031c <conv2D_sw+0x150>
10000220:	fe442783          	lw	x15,-28(x8)
10000224:	fff78793          	addi	x15,x15,-1
10000228:	fd842703          	lw	x14,-40(x8)
1000022c:	00f707b3          	add	x15,x14,x15
10000230:	fcf42823          	sw	x15,-48(x8)
10000234:	fe042783          	lw	x15,-32(x8)
10000238:	fff78793          	addi	x15,x15,-1
1000023c:	fdc42703          	lw	x14,-36(x8)
10000240:	00f707b3          	add	x15,x14,x15
10000244:	fcf42623          	sw	x15,-52(x8)
10000248:	fc042a23          	sw	x0,-44(x8)
1000024c:	fd042783          	lw	x15,-48(x8)
10000250:	0407c463          	bltz	x15,10000298 <conv2D_sw+0xcc>
10000254:	fd042703          	lw	x14,-48(x8)
10000258:	03f00793          	li	x15,63
1000025c:	02e7ce63          	blt	x15,x14,10000298 <conv2D_sw+0xcc>
10000260:	fcc42783          	lw	x15,-52(x8)
10000264:	0207ca63          	bltz	x15,10000298 <conv2D_sw+0xcc>
10000268:	fcc42703          	lw	x14,-52(x8)
1000026c:	03f00793          	li	x15,63
10000270:	02e7c463          	blt	x15,x14,10000298 <conv2D_sw+0xcc>
10000274:	fcc42783          	lw	x15,-52(x8)
10000278:	00679713          	slli	x14,x15,0x6
1000027c:	fd042783          	lw	x15,-48(x8)
10000280:	00f707b3          	add	x15,x14,x15
10000284:	00279793          	slli	x15,x15,0x2
10000288:	fbc42703          	lw	x14,-68(x8)
1000028c:	00f707b3          	add	x15,x14,x15
10000290:	0007a783          	lw	x15,0(x15)
10000294:	fcf42a23          	sw	x15,-44(x8)
10000298:	fec42783          	lw	x15,-20(x8)
1000029c:	00279793          	slli	x15,x15,0x2
100002a0:	fb442703          	lw	x14,-76(x8)
100002a4:	00f707b3          	add	x15,x14,x15
100002a8:	0007a483          	lw	x9,0(x15)
100002ac:	fe842783          	lw	x15,-24(x8)
100002b0:	00279793          	slli	x15,x15,0x2
100002b4:	fb842703          	lw	x14,-72(x8)
100002b8:	00f707b3          	add	x15,x14,x15
100002bc:	0007a783          	lw	x15,0(x15)
100002c0:	00078593          	mv	x11,x15
100002c4:	fd442503          	lw	x10,-44(x8)
100002c8:	d45ff0ef          	jal	x1,1000000c <times>
100002cc:	00050693          	mv	x13,x10
100002d0:	fec42783          	lw	x15,-20(x8)
100002d4:	00279793          	slli	x15,x15,0x2
100002d8:	fb442703          	lw	x14,-76(x8)
100002dc:	00f707b3          	add	x15,x14,x15
100002e0:	00d48733          	add	x14,x9,x13
100002e4:	00e7a023          	sw	x14,0(x15)
100002e8:	fd842783          	lw	x15,-40(x8)
100002ec:	00178793          	addi	x15,x15,1
100002f0:	fcf42c23          	sw	x15,-40(x8)
100002f4:	fd842703          	lw	x14,-40(x8)
100002f8:	00300793          	li	x15,3
100002fc:	00f71a63          	bne	x14,x15,10000310 <conv2D_sw+0x144>
10000300:	fc042c23          	sw	x0,-40(x8)
10000304:	fdc42783          	lw	x15,-36(x8)
10000308:	00178793          	addi	x15,x15,1
1000030c:	fcf42e23          	sw	x15,-36(x8)
10000310:	fe842783          	lw	x15,-24(x8)
10000314:	00178793          	addi	x15,x15,1
10000318:	fef42423          	sw	x15,-24(x8)
1000031c:	fe842703          	lw	x14,-24(x8)
10000320:	00800793          	li	x15,8
10000324:	eee7dee3          	bge	x15,x14,10000220 <conv2D_sw+0x54>
10000328:	fe442783          	lw	x15,-28(x8)
1000032c:	00178793          	addi	x15,x15,1
10000330:	fef42223          	sw	x15,-28(x8)
10000334:	fe442703          	lw	x14,-28(x8)
10000338:	04000793          	li	x15,64
1000033c:	00f71a63          	bne	x14,x15,10000350 <conv2D_sw+0x184>
10000340:	fe042223          	sw	x0,-28(x8)
10000344:	fe042783          	lw	x15,-32(x8)
10000348:	00178793          	addi	x15,x15,1
1000034c:	fef42023          	sw	x15,-32(x8)
10000350:	fec42783          	lw	x15,-20(x8)
10000354:	00178793          	addi	x15,x15,1
10000358:	fef42623          	sw	x15,-20(x8)
1000035c:	fec42703          	lw	x14,-20(x8)
10000360:	000017b7          	lui	x15,0x1
10000364:	e8f74ce3          	blt	x14,x15,100001fc <conv2D_sw+0x30>
10000368:	00000013          	nop
1000036c:	00000013          	nop
10000370:	04c12083          	lw	x1,76(x2)
10000374:	04812403          	lw	x8,72(x2)
10000378:	04412483          	lw	x9,68(x2)
1000037c:	05010113          	addi	x2,x2,80
10000380:	00008067          	ret

10000384 <main>:
10000384:	fd010113          	addi	x2,x2,-48
10000388:	02112623          	sw	x1,44(x2)
1000038c:	02812423          	sw	x8,40(x2)
10000390:	02912223          	sw	x9,36(x2)
10000394:	03010413          	addi	x8,x2,48
10000398:	fca42e23          	sw	x10,-36(x8)
1000039c:	fcb42c23          	sw	x11,-40(x8)
100003a0:	00000617          	auipc	x12,0x0
100003a4:	17060613          	addi	x12,x12,368 # 10000510 <ofm_x>
100003a8:	00000597          	auipc	x11,0x0
100003ac:	12058593          	addi	x11,x11,288 # 100004c8 <wt_x>
100003b0:	20000537          	lui	x10,0x20000
100003b4:	e19ff0ef          	jal	x1,100001cc <conv2D_sw>
100003b8:	00004617          	auipc	x12,0x4
100003bc:	15860613          	addi	x12,x12,344 # 10004510 <ofm_y>
100003c0:	00000597          	auipc	x11,0x0
100003c4:	12c58593          	addi	x11,x11,300 # 100004ec <wt_y>
100003c8:	20000537          	lui	x10,0x20000
100003cc:	e01ff0ef          	jal	x1,100001cc <conv2D_sw>
100003d0:	fe042623          	sw	x0,-20(x8)
100003d4:	0cc0006f          	j	100004a0 <main+0x11c>
100003d8:	00000717          	auipc	x14,0x0
100003dc:	13870713          	addi	x14,x14,312 # 10000510 <ofm_x>
100003e0:	fec42783          	lw	x15,-20(x8)
100003e4:	00279793          	slli	x15,x15,0x2
100003e8:	00f707b3          	add	x15,x14,x15
100003ec:	0007a683          	lw	x13,0(x15) # 1000 <_start-0xffff000>
100003f0:	00000717          	auipc	x14,0x0
100003f4:	12070713          	addi	x14,x14,288 # 10000510 <ofm_x>
100003f8:	fec42783          	lw	x15,-20(x8)
100003fc:	00279793          	slli	x15,x15,0x2
10000400:	00f707b3          	add	x15,x14,x15
10000404:	0007a783          	lw	x15,0(x15)
10000408:	00078593          	mv	x11,x15
1000040c:	00068513          	mv	x10,x13
10000410:	bfdff0ef          	jal	x1,1000000c <times>
10000414:	00050493          	mv	x9,x10
10000418:	00004717          	auipc	x14,0x4
1000041c:	0f870713          	addi	x14,x14,248 # 10004510 <ofm_y>
10000420:	fec42783          	lw	x15,-20(x8)
10000424:	00279793          	slli	x15,x15,0x2
10000428:	00f707b3          	add	x15,x14,x15
1000042c:	0007a683          	lw	x13,0(x15)
10000430:	00004717          	auipc	x14,0x4
10000434:	0e070713          	addi	x14,x14,224 # 10004510 <ofm_y>
10000438:	fec42783          	lw	x15,-20(x8)
1000043c:	00279793          	slli	x15,x15,0x2
10000440:	00f707b3          	add	x15,x14,x15
10000444:	0007a783          	lw	x15,0(x15)
10000448:	00078593          	mv	x11,x15
1000044c:	00068513          	mv	x10,x13
10000450:	bbdff0ef          	jal	x1,1000000c <times>
10000454:	00050793          	mv	x15,x10
10000458:	00f487b3          	add	x15,x9,x15
1000045c:	00078513          	mv	x10,x15
10000460:	c8dff0ef          	jal	x1,100000ec <int_sqrt>
10000464:	fea42423          	sw	x10,-24(x8)
10000468:	fe842783          	lw	x15,-24(x8)
1000046c:	0ff00713          	li	x14,255
10000470:	00f75463          	bge	x14,x15,10000478 <main+0xf4>
10000474:	0ff00793          	li	x15,255
10000478:	fef42423          	sw	x15,-24(x8)
1000047c:	fec42783          	lw	x15,-20(x8)
10000480:	00279713          	slli	x14,x15,0x2
10000484:	300007b7          	lui	x15,0x30000
10000488:	00f707b3          	add	x15,x14,x15
1000048c:	fe842703          	lw	x14,-24(x8)
10000490:	00e7a023          	sw	x14,0(x15) # 30000000 <ofm_y+0x1fffbaf0>
10000494:	fec42783          	lw	x15,-20(x8)
10000498:	00178793          	addi	x15,x15,1
1000049c:	fef42623          	sw	x15,-20(x8)
100004a0:	fec42703          	lw	x14,-20(x8)
100004a4:	000017b7          	lui	x15,0x1
100004a8:	f2f768e3          	bltu	x14,x15,100003d8 <main+0x54>
100004ac:	00000793          	li	x15,0
100004b0:	00078513          	mv	x10,x15
100004b4:	02c12083          	lw	x1,44(x2)
100004b8:	02812403          	lw	x8,40(x2)
100004bc:	02412483          	lw	x9,36(x2)
100004c0:	03010113          	addi	x2,x2,48
100004c4:	00008067          	ret

Disassembly of section .data:

100004c8 <wt_x>:
100004c8:	ffff                	0xffff
100004ca:	ffff                	0xffff
100004cc:	0000                	unimp
100004ce:	0000                	unimp
100004d0:	0001                	nop
100004d2:	0000                	unimp
100004d4:	fffe                	fsw	f31,252(x2)
100004d6:	ffff                	0xffff
100004d8:	0000                	unimp
100004da:	0000                	unimp
100004dc:	0002                	c.slli64	x0
100004de:	0000                	unimp
100004e0:	ffff                	0xffff
100004e2:	ffff                	0xffff
100004e4:	0000                	unimp
100004e6:	0000                	unimp
100004e8:	0001                	nop
	...

100004ec <wt_y>:
100004ec:	0001                	nop
100004ee:	0000                	unimp
100004f0:	0002                	c.slli64	x0
100004f2:	0000                	unimp
100004f4:	0001                	nop
	...
10000502:	0000                	unimp
10000504:	ffff                	0xffff
10000506:	ffff                	0xffff
10000508:	fffe                	fsw	f31,252(x2)
1000050a:	ffff                	0xffff
1000050c:	ffff                	0xffff
1000050e:	ffff                	0xffff

Disassembly of section .bss:

10000510 <ofm_x>:
	...

10004510 <ofm_y>:
	...

Disassembly of section .comment:

00000000 <.comment>:
   0:	3a434347          	fmsub.d	f6,f6,f4,f7,rmm
   4:	2820                	fld	f8,80(x8)
   6:	29554e47          	fmsub.s	f28,f10,f21,f5,rmm
   a:	3120                	fld	f8,96(x10)
   c:	2e30                	fld	f12,88(x12)
   e:	2e32                	fld	f28,264(x2)
  10:	0030                	addi	x12,x2,8

Disassembly of section .riscv.attributes:

00000000 <.riscv.attributes>:
   0:	1b41                	addi	x22,x22,-16
   2:	0000                	unimp
   4:	7200                	flw	f8,32(x12)
   6:	7369                	lui	x6,0xffffa
   8:	01007663          	bgeu	x0,x16,14 <_start-0xfffffec>
   c:	0011                	c.nop	4
   e:	0000                	unimp
  10:	1004                	addi	x9,x2,32
  12:	7205                	lui	x4,0xfffe1
  14:	3376                	fld	f6,376(x2)
  16:	6932                	flw	f18,12(x2)
  18:	7032                	flw	f0,44(x2)
  1a:	0030                	addi	x12,x2,8
