
c_test.elf:     file format elf32-littleriscv


Disassembly of section .text:

10000000 <_start>:
10000000:	10010137          	lui	x2,0x10010
10000004:	ff010113          	addi	x2,x2,-16 # 1000fff0 <main+0xffe4>
10000008:	004000ef          	jal	x1,1000000c <main>

Disassembly of section .text.startup:

1000000c <main>:
1000000c:	ff010113          	addi	x2,x2,-16
10000010:	00000793          	li	x15,0
10000014:	51e79073          	csrw	0x51e,x15
10000018:	00000617          	auipc	x12,0x0
1000001c:	12d60613          	addi	x12,x12,301 # 10000145 <main+0x139>
10000020:	00d00693          	li	x13,13
10000024:	80000737          	lui	x14,0x80000
10000028:	00072783          	lw	x15,0(x14) # 80000000 <main+0x6ffffff4>
1000002c:	0017f793          	andi	x15,x15,1
10000030:	fe078ce3          	beqz	x15,10000028 <main+0x1c>
10000034:	00d72423          	sw	x13,8(x14)
10000038:	00064683          	lbu	x13,0(x12)
1000003c:	00160613          	addi	x12,x12,1
10000040:	fe0694e3          	bnez	x13,10000028 <main+0x1c>
10000044:	00010813          	mv	x16,x2
10000048:	00000513          	li	x10,0
1000004c:	80000737          	lui	x14,0x80000
10000050:	00d00893          	li	x17,13
10000054:	01000313          	li	x6,16
10000058:	00072783          	lw	x15,0(x14) # 80000000 <main+0x6ffffff4>
1000005c:	0027f793          	andi	x15,x15,2
10000060:	fe078ce3          	beqz	x15,10000058 <main+0x4c>
10000064:	00472683          	lw	x13,4(x14)
10000068:	0ff6f613          	zext.b	x12,x13
1000006c:	0b160663          	beq	x12,x17,10000118 <main+0x10c>
10000070:	00072783          	lw	x15,0(x14)
10000074:	0017f793          	andi	x15,x15,1
10000078:	fe078ce3          	beqz	x15,10000070 <main+0x64>
1000007c:	0ff6f693          	zext.b	x13,x13
10000080:	00d72423          	sw	x13,8(x14)
10000084:	00000797          	auipc	x15,0x0
10000088:	0cd78793          	addi	x15,x15,205 # 10000151 <main+0x145>
1000008c:	02000693          	li	x13,32
10000090:	00c0006f          	j	1000009c <main+0x90>
10000094:	fff7c683          	lbu	x13,-1(x15)
10000098:	04068e63          	beqz	x13,100000f4 <main+0xe8>
1000009c:	00178793          	addi	x15,x15,1
100000a0:	fed61ae3          	bne	x12,x13,10000094 <main+0x88>
100000a4:	01010793          	addi	x15,x2,16
100000a8:	00a78533          	add	x10,x15,x10
100000ac:	fe050823          	sb	x0,-16(x10)
100000b0:	00014703          	lbu	x14,0(x2)
100000b4:	07800793          	li	x15,120
100000b8:	04f71a63          	bne	x14,x15,1000010c <main+0x100>
100000bc:	00110713          	addi	x14,x2,1
100000c0:	00000797          	auipc	x15,0x0
100000c4:	09578793          	addi	x15,x15,149 # 10000155 <main+0x149>
100000c8:	00074603          	lbu	x12,0(x14)
100000cc:	0007c683          	lbu	x13,0(x15)
100000d0:	00170713          	addi	x14,x14,1
100000d4:	00178793          	addi	x15,x15,1
100000d8:	02c69a63          	bne	x13,x12,1000010c <main+0x100>
100000dc:	fe0696e3          	bnez	x13,100000c8 <main+0xbc>
100000e0:	00100793          	li	x15,1
100000e4:	51e79073          	csrw	0x51e,x15
100000e8:	00000513          	li	x10,0
100000ec:	01010113          	addi	x2,x2,16
100000f0:	00008067          	ret
100000f4:	00c80023          	sb	x12,0(x16)
100000f8:	00150513          	addi	x10,x10,1
100000fc:	00180813          	addi	x16,x16,1
10000100:	f4651ce3          	bne	x10,x6,10000058 <main+0x4c>
10000104:	000107a3          	sb	x0,15(x2)
10000108:	fa9ff06f          	j	100000b0 <main+0xa4>
1000010c:	00200793          	li	x15,2
10000110:	51e79073          	csrw	0x51e,x15
10000114:	fd5ff06f          	j	100000e8 <main+0xdc>
10000118:	00000597          	auipc	x11,0x0
1000011c:	03558593          	addi	x11,x11,53 # 1000014d <main+0x141>
10000120:	00d00693          	li	x13,13
10000124:	00072783          	lw	x15,0(x14)
10000128:	0017f793          	andi	x15,x15,1
1000012c:	fe078ce3          	beqz	x15,10000124 <main+0x118>
10000130:	00d72423          	sw	x13,8(x14)
10000134:	0005c683          	lbu	x13,0(x11)
10000138:	00158593          	addi	x11,x11,1
1000013c:	fe0694e3          	bnez	x13,10000124 <main+0x118>
10000140:	f45ff06f          	j	10000084 <main+0x78>

Disassembly of section .rodata.str1.4:

10000144 <.rodata.str1.4>:
10000144:	0a0d                	addi	x20,x20,3
10000146:	3531                	jal	fffff52 <_start-0xae>
10000148:	3e31                	jal	ffffc64 <_start-0x39c>
1000014a:	0020                	addi	x8,x2,8
1000014c:	0a0d                	addi	x20,x20,3
1000014e:	0000                	unimp
10000150:	0d20                	addi	x8,x2,664
10000152:	0000                	unimp
10000154:	7978                	flw	f14,116(x10)
10000156:	007a                	c.slli	x0,0x1e

Disassembly of section .comment:

00000000 <.comment>:
   0:	3a434347          	fmsub.d	f6,f6,f4,f7,rmm
   4:	2820                	fld	f8,80(x8)
   6:	29554e47          	fmsub.s	f28,f10,f21,f5,rmm
   a:	3120                	fld	f8,96(x10)
   c:	2e30                	fld	f12,88(x12)
   e:	2e32                	fld	f28,264(x2)
  10:	0030                	addi	x12,x2,8

Disassembly of section .riscv.attributes:

00000000 <.riscv.attributes>:
   0:	1f41                	addi	x30,x30,-16
   2:	0000                	unimp
   4:	7200                	flw	f8,32(x12)
   6:	7369                	lui	x6,0xffffa
   8:	01007663          	bgeu	x0,x16,14 <_start-0xfffffec>
   c:	0015                	c.nop	5
   e:	0000                	unimp
  10:	1004                	addi	x9,x2,32
  12:	7205                	lui	x4,0xfffe1
  14:	3376                	fld	f6,376(x2)
  16:	6932                	flw	f18,12(x2)
  18:	7032                	flw	f0,44(x2)
  1a:	0030                	addi	x12,x2,8
  1c:	0108                	addi	x10,x2,128
  1e:	0b0a                	slli	x22,x22,0x2
