
c_test.elf:     file format elf32-littleriscv


Disassembly of section .text:

10000000 <_start>:
10000000:	10010137          	lui	x2,0x10010
10000004:	ff010113          	addi	x2,x2,-16 # 1000fff0 <main+0xff80>
10000008:	068000ef          	jal	x1,10000070 <main>

1000000c <strlen>:
1000000c:	00054783          	lbu	x15,0(x10)
10000010:	00050713          	mv	x14,x10
10000014:	00000513          	li	x10,0
10000018:	00078c63          	beqz	x15,10000030 <strlen+0x24>
1000001c:	00150513          	addi	x10,x10,1
10000020:	00a707b3          	add	x15,x14,x10
10000024:	0007c783          	lbu	x15,0(x15)
10000028:	fe079ae3          	bnez	x15,1000001c <strlen+0x10>
1000002c:	00008067          	ret
10000030:	00008067          	ret

10000034 <strcmp>:
10000034:	00054783          	lbu	x15,0(x10)
10000038:	0005c703          	lbu	x14,0(x11)
1000003c:	02f71263          	bne	x14,x15,10000060 <strcmp+0x2c>
10000040:	00150513          	addi	x10,x10,1
10000044:	00158593          	addi	x11,x11,1
10000048:	02078063          	beqz	x15,10000068 <strcmp+0x34>
1000004c:	00054783          	lbu	x15,0(x10)
10000050:	0005c703          	lbu	x14,0(x11)
10000054:	00150513          	addi	x10,x10,1
10000058:	00158593          	addi	x11,x11,1
1000005c:	fee786e3          	beq	x15,x14,10000048 <strcmp+0x14>
10000060:	00100513          	li	x10,1
10000064:	00008067          	ret
10000068:	00000513          	li	x10,0
1000006c:	00008067          	ret

Disassembly of section .text.startup:

10000070 <main>:
10000070:	ff010113          	addi	x2,x2,-16
10000074:	00000793          	li	x15,0
10000078:	51e79073          	csrw	0x51e,x15
1000007c:	00000717          	auipc	x14,0x0
10000080:	10970713          	addi	x14,x14,265 # 10000185 <main+0x115>
10000084:	03100793          	li	x15,49
10000088:	80000637          	lui	x12,0x80000
1000008c:	00062683          	lw	x13,0(x12) # 80000000 <main+0x6fffff90>
10000090:	0016f693          	andi	x13,x13,1
10000094:	fe068ce3          	beqz	x13,1000008c <main+0x1c>
10000098:	00f62423          	sw	x15,8(x12)
1000009c:	00074783          	lbu	x15,0(x14)
100000a0:	00170713          	addi	x14,x14,1
100000a4:	fe0794e3          	bnez	x15,1000008c <main+0x1c>
100000a8:	00010513          	mv	x10,x2
100000ac:	00000713          	li	x14,0
100000b0:	800007b7          	lui	x15,0x80000
100000b4:	00d00893          	li	x17,13
100000b8:	01000313          	li	x6,16
100000bc:	0007a683          	lw	x13,0(x15) # 80000000 <main+0x6fffff90>
100000c0:	0026f693          	andi	x13,x13,2
100000c4:	fe068ce3          	beqz	x13,100000bc <main+0x4c>
100000c8:	0047a683          	lw	x13,4(x15)
100000cc:	0ff6f593          	andi	x11,x13,255
100000d0:	07158e63          	beq	x11,x17,1000014c <main+0xdc>
100000d4:	0007a603          	lw	x12,0(x15)
100000d8:	00167613          	andi	x12,x12,1
100000dc:	fe060ce3          	beqz	x12,100000d4 <main+0x64>
100000e0:	0ff6f693          	andi	x13,x13,255
100000e4:	00d7a423          	sw	x13,8(x15)
100000e8:	00000617          	auipc	x12,0x0
100000ec:	0a960613          	addi	x12,x12,169 # 10000191 <main+0x121>
100000f0:	02000693          	li	x13,32
100000f4:	00c0006f          	j	10000100 <main+0x90>
100000f8:	fff64683          	lbu	x13,-1(x12)
100000fc:	02068e63          	beqz	x13,10000138 <main+0xc8>
10000100:	00160613          	addi	x12,x12,1
10000104:	fed59ae3          	bne	x11,x13,100000f8 <main+0x88>
10000108:	01010793          	addi	x15,x2,16
1000010c:	00e78733          	add	x14,x15,x14
10000110:	fe070823          	sb	x0,-16(x14)
10000114:	00012703          	lw	x14,0(x2)
10000118:	007a87b7          	lui	x15,0x7a8
1000011c:	97878793          	addi	x15,x15,-1672 # 7a7978 <_start-0xf858688>
10000120:	04f70c63          	beq	x14,x15,10000178 <main+0x108>
10000124:	00200793          	li	x15,2
10000128:	51e79073          	csrw	0x51e,x15
1000012c:	00000513          	li	x10,0
10000130:	01010113          	addi	x2,x2,16
10000134:	00008067          	ret
10000138:	00b50023          	sb	x11,0(x10)
1000013c:	00170713          	addi	x14,x14,1
10000140:	00150513          	addi	x10,x10,1
10000144:	f6671ce3          	bne	x14,x6,100000bc <main+0x4c>
10000148:	fcdff06f          	j	10000114 <main+0xa4>
1000014c:	00000817          	auipc	x16,0x0
10000150:	04180813          	addi	x16,x16,65 # 1000018d <main+0x11d>
10000154:	00d00613          	li	x12,13
10000158:	0007a683          	lw	x13,0(x15)
1000015c:	0016f693          	andi	x13,x13,1
10000160:	fe068ce3          	beqz	x13,10000158 <main+0xe8>
10000164:	00c7a423          	sw	x12,8(x15)
10000168:	00084603          	lbu	x12,0(x16)
1000016c:	00180813          	addi	x16,x16,1
10000170:	fe0614e3          	bnez	x12,10000158 <main+0xe8>
10000174:	f75ff06f          	j	100000e8 <main+0x78>
10000178:	00100793          	li	x15,1
1000017c:	51e79073          	csrw	0x51e,x15
10000180:	fadff06f          	j	1000012c <main+0xbc>

Disassembly of section .rodata.str1.4:

10000184 <.rodata.str1.4>:
10000184:	3531                	jal	fffff90 <_start-0x70>
10000186:	3e31                	jal	ffffca2 <_start-0x35e>
10000188:	0020                	addi	x8,x2,8
1000018a:	0000                	unimp
1000018c:	0a0d                	addi	x20,x20,3
1000018e:	0000                	unimp
10000190:	0d20                	addi	x8,x2,664
10000192:	0000                	unimp
10000194:	7978                	flw	f14,116(x10)
10000196:	007a                	c.slli	x0,0x1e

Disassembly of section .comment:

00000000 <.comment>:
   0:	3a434347          	fmsub.d	f6,f6,f4,f7,rmm
   4:	2820                	fld	f8,80(x8)
   6:	29554e47          	fmsub.s	f28,f10,f21,f5,rmm
   a:	3920                	fld	f8,112(x10)
   c:	322e                	fld	f4,232(x2)
   e:	302e                	fld	f0,232(x2)
	...

Disassembly of section .riscv.attributes:

00000000 <.riscv.attributes>:
   0:	1b41                	addi	x22,x22,-16
   2:	0000                	unimp
   4:	7200                	flw	f8,32(x12)
   6:	7369                	lui	x6,0xffffa
   8:	01007663          	bgeu	x0,x16,14 <_start-0xfffffec>
   c:	0011                	c.nop	4
   e:	0000                	unimp
  10:	1004                	addi	x9,x2,32
  12:	7205                	lui	x4,0xfffe1
  14:	3376                	fld	f6,376(x2)
  16:	6932                	flw	f18,12(x2)
  18:	7032                	flw	f0,44(x2)
  1a:	0030                	addi	x12,x2,8
